#include <math.h>
#include <stdio.h>
#include <stdlib.h>
#include <string.h>

main()
{
      int a,b,i;
      int c[100000];
      scanf("%d",&a);
      for(i=0;i<a;i++)
      {
                      scanf("%d",&c[i]);
      } 
      scanf("%d",&b);
      int k=0;
      for(i=0;i<a;i++)
      if(c[i]!=b)
      {
                 if(k==0)
                 {printf("%d",c[i]);k=1;}
                 else
                 printf(" %d",c[i]);
      }
      getchar();
      getchar(); 
}
